target datalayout = "e-m:e-p270:32:32-p271:32:32-p272:64:64-i64:64-i128:128-f80:128-n8:16:32:64-S128"
target triple = "x86_64-pc-linux-gnu"

%struct.ForEachState = type { ptr, i32 }
%struct.List = type { i32, i32, i32, ptr, [0 x %union.ListCell] }
%union.ListCell = type { ptr }
%struct.String = type { i32, ptr }
%struct.StringInfoData = type { ptr, i32, i32, i32 }

; Function Attrs: inlinehint nounwind uwtable
define internal ptr @list_head(ptr noundef %0) #7 {
  %2 = alloca ptr, align 8
  store ptr %0, ptr %2, align 8
  %3 = load ptr, ptr %2, align 8
  %4 = icmp ne ptr %3, null
  br i1 %4, label %5, label %10

5:                                                ; preds = %1
  %6 = load ptr, ptr %2, align 8
  %7 = getelementptr inbounds nuw %struct.List, ptr %6, i32 0, i32 3
  %8 = load ptr, ptr %7, align 8
  %9 = getelementptr inbounds %union.ListCell, ptr %8, i64 0
  br label %11

10:                                               ; preds = %1
  br label %11

11:                                               ; preds = %10, %5
  %12 = phi ptr [ %9, %5 ], [ null, %10 ]
  ret ptr %12
}

; Function Attrs: nounwind uwtable
define dso_local ptr @NameListToQuotedString(ptr noundef %0) #0 {
  %2 = alloca ptr, align 8
  %3 = alloca %struct.StringInfoData, align 8
  %4 = alloca ptr, align 8
  %5 = alloca %struct.ForEachState, align 8
  store ptr %0, ptr %2, align 8
  call void @llvm.lifetime.start.p0(i64 24, ptr %3) #14
  call void @llvm.lifetime.start.p0(i64 8, ptr %4) #14
  call void @initStringInfo(ptr noundef %3)
  call void @llvm.lifetime.start.p0(i64 16, ptr %5) #14
  %6 = getelementptr inbounds nuw %struct.ForEachState, ptr %5, i32 0, i32 0
  %7 = load ptr, ptr %2, align 8
  store ptr %7, ptr %6, align 8
  %8 = getelementptr inbounds nuw %struct.ForEachState, ptr %5, i32 0, i32 1
  store i32 0, ptr %8, align 8
  %9 = getelementptr i8, ptr %5, i64 12
  call void @llvm.memset.p0.i64(ptr align 4 %9, i8 0, i64 4, i1 false)
  br label %10

10:                                               ; preds = %48, %1
  %11 = getelementptr inbounds nuw %struct.ForEachState, ptr %5, i32 0, i32 0
  %12 = load ptr, ptr %11, align 8
  %13 = icmp ne ptr %12, null
  br i1 %13, label %14, label %31

14:                                               ; preds = %10
  %15 = getelementptr inbounds nuw %struct.ForEachState, ptr %5, i32 0, i32 1
  %16 = load i32, ptr %15, align 8
  %17 = getelementptr inbounds nuw %struct.ForEachState, ptr %5, i32 0, i32 0
  %18 = load ptr, ptr %17, align 8
  %19 = getelementptr inbounds nuw %struct.List, ptr %18, i32 0, i32 1
  %20 = load i32, ptr %19, align 4
  %21 = icmp slt i32 %16, %20
  br i1 %21, label %22, label %31

22:                                               ; preds = %14
  %23 = getelementptr inbounds nuw %struct.ForEachState, ptr %5, i32 0, i32 0
  %24 = load ptr, ptr %23, align 8
  %25 = getelementptr inbounds nuw %struct.List, ptr %24, i32 0, i32 3
  %26 = load ptr, ptr %25, align 8
  %27 = getelementptr inbounds nuw %struct.ForEachState, ptr %5, i32 0, i32 1
  %28 = load i32, ptr %27, align 8
  %29 = sext i32 %28 to i64
  %30 = getelementptr inbounds %union.ListCell, ptr %26, i64 %29
  store ptr %30, ptr %4, align 8
  br label %32

31:                                               ; preds = %14, %10
  store ptr null, ptr %4, align 8
  br label %32

32:                                               ; preds = %31, %22
  %33 = phi i32 [ 1, %22 ], [ 0, %31 ]
  %34 = icmp ne i32 %33, 0
  br i1 %34, label %36, label %35

35:                                               ; preds = %32
  call void @llvm.lifetime.end.p0(i64 16, ptr %5) #14
  br label %52

36:                                               ; preds = %32
  %37 = load ptr, ptr %4, align 8
  %38 = load ptr, ptr %2, align 8
  %39 = call ptr @list_head(ptr noundef %38)
  %40 = icmp ne ptr %37, %39
  br i1 %40, label %41, label %42

41:                                               ; preds = %36
  call void @appendStringInfoChar(ptr noundef %3, i8 noundef signext 46)
  br label %42

42:                                               ; preds = %41, %36
  %43 = load ptr, ptr %4, align 8
  %44 = load ptr, ptr %43, align 8
  %45 = getelementptr inbounds nuw %struct.String, ptr %44, i32 0, i32 1
  %46 = load ptr, ptr %45, align 8
  %47 = call ptr @quote_identifier(ptr noundef %46)
  call void @appendStringInfoString(ptr noundef %3, ptr noundef %47)
  br label %48

48:                                               ; preds = %42
  %49 = getelementptr inbounds nuw %struct.ForEachState, ptr %5, i32 0, i32 1
  %50 = load i32, ptr %49, align 8
  %51 = add i32 %50, 1
  store i32 %51, ptr %49, align 8
  br label %10, !llvm.loop !42

52:                                               ; preds = %35
  %53 = getelementptr inbounds nuw %struct.StringInfoData, ptr %3, i32 0, i32 0
  %54 = load ptr, ptr %53, align 8
  call void @llvm.lifetime.end.p0(i64 8, ptr %4) #14
  call void @llvm.lifetime.end.p0(i64 24, ptr %3) #14
  ret ptr %54
}