; Function Attrs: nounwind uwtable
define dso_local ptr @NameListToQuotedString(ptr noundef readonly captures(address_is_null) %0) local_unnamed_addr #0 {
  %2 = alloca %struct.StringInfoData, align 8
  call void @llvm.lifetime.start.p0(i64 24, ptr nonnull %2) #19
  call void @initStringInfo(ptr noundef nonnull %2) #19
  %3 = getelementptr inbounds nuw i8, ptr %0, i64 4
  %.not = icmp eq ptr %0, null
  br i1 %.not, label %._crit_edge, label %.lr.ph

.lr.ph:                                           ; preds = %1
  %4 = getelementptr inbounds nuw i8, ptr %0, i64 16
  %5 = load i32, ptr %3, align 4
  %6 = icmp sgt i32 %5, 0
  br i1 %6, label %list_head.exit, label %._crit_edge

._crit_edge:                                      ; preds = %11, %.lr.ph, %1
  %7 = load ptr, ptr %2, align 8
  call void @llvm.lifetime.end.p0(i64 24, ptr nonnull %2) #19
  ret ptr %7

list_head.exit:                                   ; preds = %.lr.ph, %11
  %indvars.iv = phi i64 [ %indvars.iv.next, %11 ], [ 0, %.lr.ph ]
  %8 = load ptr, ptr %4, align 8
  %9 = getelementptr inbounds nuw %union.ListCell, ptr %8, i64 %indvars.iv
  %.not10 = icmp eq i64 %indvars.iv, 0
  br i1 %.not10, label %11, label %10

10:                                               ; preds = %list_head.exit
  call void @appendStringInfoChar(ptr noundef nonnull %2, i8 noundef signext 46) #19
  br label %11

11:                                               ; preds = %10, %list_head.exit
  %12 = load ptr, ptr %9, align 8
  %13 = getelementptr inbounds nuw i8, ptr %12, i64 8
  %14 = load ptr, ptr %13, align 8
  %15 = call ptr @quote_identifier(ptr noundef %14) #19
  call void @appendStringInfoString(ptr noundef nonnull %2, ptr noundef %15) #19
  %indvars.iv.next = add nuw nsw i64 %indvars.iv, 1
  %16 = load i32, ptr %3, align 4
  %17 = sext i32 %16 to i64
  %18 = icmp slt i64 %indvars.iv.next, %17
  br i1 %18, label %list_head.exit, label %._crit_edge
}